; Function Attrs: mustprogress uwtable
define hidden noalias noundef ptr @_Z8and_thenP6tacticS0_S0_S0_S0_S0_S0_S0_(ptr noundef %t1, ptr noundef %t2, ptr noundef %t3, ptr noundef %t4, ptr noundef %t5, ptr noundef %t6, ptr noundef %t7, ptr noundef %t8) local_unnamed_addr #3 personality ptr @__gxx_personality_v0 {
entry:
  %call.i.i = tail call noundef ptr @_Z8and_thenP6tacticS0_S0_S0_S0_(ptr noundef %t4, ptr noundef %t5, ptr noundef %t6, ptr noundef %t7, ptr noundef %t8)
  %call.i.i.i = tail call noalias noundef ptr @_ZN6memory8allocateEm(i64 noundef 32)
  %m_ref_count.i.i.i.i.i.i = getelementptr inbounds i8, ptr %call.i.i.i, i64 8
  store i32 0, ptr %m_ref_count.i.i.i.i.i.i, align 8
  %m_t1.i.i.i.i.i = getelementptr inbounds i8, ptr %call.i.i.i, i64 16
  store ptr %t3, ptr %m_t1.i.i.i.i.i, align 8
  %tobool.not.i.i.i.i.i.i.i = icmp eq ptr %t3, null
  br i1 %tobool.not.i.i.i.i.i.i.i, label %invoke.cont.i.i.i.i.i, label %if.then.i.i.i.i.i.i.i

if.then.i.i.i.i.i.i.i:                            ; preds = %entry
  %m_ref_count.i.i.i.i.i.i.i.i = getelementptr inbounds i8, ptr %t3, i64 8
  %0 = load i32, ptr %m_ref_count.i.i.i.i.i.i.i.i, align 8
  %inc.i.i.i.i.i.i.i.i = add i32 %0, 1
  store i32 %inc.i.i.i.i.i.i.i.i, ptr %m_ref_count.i.i.i.i.i.i.i.i, align 8
  br label %invoke.cont.i.i.i.i.i

invoke.cont.i.i.i.i.i:                            ; preds = %if.then.i.i.i.i.i.i.i, %entry
  %m_t2.i.i.i.i.i = getelementptr inbounds i8, ptr %call.i.i.i, i64 24
  store ptr %call.i.i, ptr %m_t2.i.i.i.i.i, align 8
  %tobool.not.i.i2.i.i.i.i.i = icmp eq ptr %call.i.i, null
  br i1 %tobool.not.i.i2.i.i.i.i.i, label %_Z8and_thenP6tacticS0_S0_S0_S0_S0_.exit.i, label %if.then.i.i3.i.i.i.i.i

if.then.i.i3.i.i.i.i.i:                           ; preds = %invoke.cont.i.i.i.i.i
  %m_ref_count.i.i.i4.i.i.i.i.i = getelementptr inbounds i8, ptr %call.i.i, i64 8
  %1 = load i32, ptr %m_ref_count.i.i.i4.i.i.i.i.i, align 8
  %inc.i.i.i5.i.i.i.i.i = add i32 %1, 1
  store i32 %inc.i.i.i5.i.i.i.i.i, ptr %m_ref_count.i.i.i4.i.i.i.i.i, align 8
  br label %_Z8and_thenP6tacticS0_S0_S0_S0_S0_.exit.i

_Z8and_thenP6tacticS0_S0_S0_S0_S0_.exit.i:        ; preds = %if.then.i.i3.i.i.i.i.i, %invoke.cont.i.i.i.i.i
  store ptr getelementptr inbounds ({ [25 x ptr] }, ptr @_ZTV17and_then_tactical, i64 0, i32 0, i64 2), ptr %call.i.i.i, align 8
  %call.i1.i = tail call noalias noundef ptr @_ZN6memory8allocateEm(i64 noundef 32)
  %m_ref_count.i.i.i.i.i = getelementptr inbounds i8, ptr %call.i1.i, i64 8
  store i32 0, ptr %m_ref_count.i.i.i.i.i, align 8
  %m_t1.i.i.i.i = getelementptr inbounds i8, ptr %call.i1.i, i64 16
  store ptr %t2, ptr %m_t1.i.i.i.i, align 8
  %tobool.not.i.i.i.i.i.i = icmp eq ptr %t2, null
  br i1 %tobool.not.i.i.i.i.i.i, label %_Z8and_thenP6tacticS0_S0_S0_S0_S0_S0_.exit, label %if.then.i.i.i.i.i.i

if.then.i.i.i.i.i.i:                              ; preds = %_Z8and_thenP6tacticS0_S0_S0_S0_S0_.exit.i
  %m_ref_count.i.i.i.i.i.i.i = getelementptr inbounds i8, ptr %t2, i64 8
  %2 = load i32, ptr %m_ref_count.i.i.i.i.i.i.i, align 8
  %inc.i.i.i.i.i.i.i = add i32 %2, 1
  store i32 %inc.i.i.i.i.i.i.i, ptr %m_ref_count.i.i.i.i.i.i.i, align 8
  br label %_Z8and_thenP6tacticS0_S0_S0_S0_S0_S0_.exit

_Z8and_thenP6tacticS0_S0_S0_S0_S0_S0_.exit:       ; preds = %_Z8and_thenP6tacticS0_S0_S0_S0_S0_.exit.i, %if.then.i.i.i.i.i.i
  %m_t2.i.i.i.i = getelementptr inbounds i8, ptr %call.i1.i, i64 24
  store ptr %call.i.i.i, ptr %m_t2.i.i.i.i, align 8
  store i32 1, ptr %m_ref_count.i.i.i.i.i.i, align 8
  store ptr getelementptr inbounds ({ [25 x ptr] }, ptr @_ZTV17and_then_tactical, i64 0, i32 0, i64 2), ptr %call.i1.i, align 8
  %call.i = tail call noalias noundef ptr @_ZN6memory8allocateEm(i64 noundef 32)
  %m_ref_count.i.i.i.i = getelementptr inbounds i8, ptr %call.i, i64 8
  store i32 0, ptr %m_ref_count.i.i.i.i, align 8
  %m_t1.i.i.i = getelementptr inbounds i8, ptr %call.i, i64 16
  store ptr %t1, ptr %m_t1.i.i.i, align 8
  %tobool.not.i.i.i.i.i = icmp eq ptr %t1, null
  br i1 %tobool.not.i.i.i.i.i, label %_Z8and_thenP6tacticS0_.exit, label %if.then.i.i.i.i.i

if.then.i.i.i.i.i:                                ; preds = %_Z8and_thenP6tacticS0_S0_S0_S0_S0_S0_.exit
  %m_ref_count.i.i.i.i.i.i1 = getelementptr inbounds i8, ptr %t1, i64 8
  %3 = load i32, ptr %m_ref_count.i.i.i.i.i.i1, align 8
  %inc.i.i.i.i.i.i = add i32 %3, 1
  store i32 %inc.i.i.i.i.i.i, ptr %m_ref_count.i.i.i.i.i.i1, align 8
  br label %_Z8and_thenP6tacticS0_.exit

_Z8and_thenP6tacticS0_.exit:                      ; preds = %if.then.i.i.i.i.i, %_Z8and_thenP6tacticS0_S0_S0_S0_S0_S0_.exit
  %m_t2.i.i.i = getelementptr inbounds i8, ptr %call.i, i64 24
  store ptr %call.i1.i, ptr %m_t2.i.i.i, align 8
  store i32 1, ptr %m_ref_count.i.i.i.i.i, align 8
  store ptr getelementptr inbounds ({ [25 x ptr] }, ptr @_ZTV17and_then_tactical, i64 0, i32 0, i64 2), ptr %call.i, align 8
  ret ptr %call.i
}